target datalayout = "e-m:e-p270:32:32-p271:32:32-p272:64:64-i64:64-i128:128-f80:128-n8:16:32:64-S128"
target triple = "x86_64-pc-linux-gnu"

; Function Attrs: mustprogress nounwind uwtable
define noundef i32 @_ZNK10open_spiel5maedn10MaednState14RelPosToAbsPosEii(ptr noundef nonnull align 8 dereferenceable(160) %0, i32 noundef %1, i32 noundef %2) #4 align 2 {
  %4 = alloca i32, align 4
  %5 = alloca ptr, align 8
  %6 = alloca i32, align 4
  %7 = alloca i32, align 4
  %8 = alloca i32, align 4
  store ptr %0, ptr %5, align 8
  store i32 %1, ptr %6, align 4
  store i32 %2, ptr %7, align 4
  %9 = load i32, ptr %6, align 4
  %10 = icmp slt i32 %9, 40
  br i1 %10, label %11, label %18

11:                                               ; preds = %3
  %12 = load i32, ptr %7, align 4
  %13 = mul nsw i32 10, %12
  store i32 %13, ptr %8, align 4
  %14 = load i32, ptr %6, align 4
  %15 = load i32, ptr %8, align 4
  %16 = add nsw i32 %14, %15
  %17 = srem i32 %16, 40
  store i32 %17, ptr %4, align 4
  br label %23

18:                                               ; preds = %3
  %19 = load i32, ptr %7, align 4
  %20 = mul nsw i32 4, %19
  %21 = load i32, ptr %6, align 4
  %22 = add nsw i32 %20, %21
  store i32 %22, ptr %4, align 4
  br label %23

23:                                               ; preds = %18, %11
  %24 = load i32, ptr %4, align 4
  ret i32 %24
}